; Function Attrs: nofree norecurse nosync nounwind memory(argmem: read) uwtable
define i32 @Kit_TruthCountOnes_64bit(ptr noundef readonly captures(none) %0, i32 noundef %1) local_unnamed_addr #1 {
  %3 = icmp slt i32 %1, 7
  %4 = add nsw i32 %1, -6
  %5 = shl nuw i32 1, %4
  %spec.select = select i1 %3, i32 1, i32 %5
  %6 = icmp sgt i32 %spec.select, 0
  br i1 %6, label %select.unfold.preheader, label %select.unfold._crit_edge

select.unfold.preheader:                          ; preds = %2
  %7 = zext nneg i32 %spec.select to i64
  br label %select.unfold

select.unfold:                                    ; preds = %select.unfold.preheader, %select.unfold
  %indvars.iv = phi i64 [ %7, %select.unfold.preheader ], [ %indvars.iv.next, %select.unfold ]
  %.08 = phi i32 [ 0, %select.unfold.preheader ], [ %28, %select.unfold ]
  %indvars.iv.next = add nsw i64 %indvars.iv, -1
  %8 = getelementptr inbounds nuw i64, ptr %0, i64 %indvars.iv.next
  %9 = load i64, ptr %8, align 8, !tbaa !3
  %10 = lshr i64 %9, 1
  %11 = and i64 %10, 6148914691236517205
  %12 = sub i64 %9, %11
  %13 = and i64 %12, 3689348814741910323
  %14 = lshr i64 %12, 2
  %15 = and i64 %14, 3689348814741910323
  %16 = add nuw nsw i64 %15, %13
  %17 = lshr i64 %16, 4
  %18 = add nuw nsw i64 %17, %16
  %19 = and i64 %18, 1085102592571150095
  %20 = lshr i64 %19, 8
  %21 = add nuw nsw i64 %20, %19
  %22 = lshr i64 %21, 16
  %23 = add nuw nsw i64 %22, %21
  %24 = lshr i64 %23, 32
  %25 = add nuw nsw i64 %24, %23
  %26 = trunc i64 %25 to i32
  %27 = and i32 %26, 255
  %28 = add nuw nsw i32 %27, %.08
  %29 = icmp samesign ugt i64 %indvars.iv, 1
  br i1 %29, label %select.unfold, label %select.unfold._crit_edge, !llvm.loop !7

select.unfold._crit_edge:                         ; preds = %select.unfold, %2
  %.0.lcssa = phi i32 [ 0, %2 ], [ %28, %select.unfold ]
  ret i32 %.0.lcssa
}